; Function Attrs: nounwind uwtable
define internal i32 @test_des_ede_cbc() #0 {
  %1 = alloca [8 x i8], align 8
  %2 = alloca %struct.DES_ks, align 4
  %3 = alloca [40 x i8], align 16
  %4 = alloca [40 x i8], align 16
  call void @llvm.lifetime.start.p0(i64 8, ptr nonnull %1) #6
  call void @llvm.lifetime.start.p0(i64 128, ptr nonnull %2) #6
  call void @llvm.lifetime.start.p0(i64 40, ptr nonnull %3) #6
  call void @llvm.lifetime.start.p0(i64 40, ptr nonnull %4) #6
  %5 = tail call i64 @strlen(ptr noundef nonnull dereferenceable(1) @cbc_data) #7
  %6 = add i64 %5, 1
  %7 = call i32 @DES_set_key_checked(ptr noundef nonnull @cbc_key, ptr noundef nonnull %2) #6
  %8 = call i32 @test_int_eq(ptr noundef nonnull @.str.24, i32 noundef 404, ptr noundef nonnull @.str.32, ptr noundef nonnull @.str.33, i32 noundef %7, i32 noundef 0) #6
  %.not = icmp eq i32 %8, 0
  br i1 %.not, label %15, label %9

9:                                                ; preds = %0
  call void @llvm.memset.p0.i64(ptr noundef nonnull align 16 dereferenceable(40) %4, i8 0, i64 40, i1 false)
  call void @llvm.memset.p0.i64(ptr noundef nonnull align 16 dereferenceable(40) %3, i8 0, i64 40, i1 false)
  %10 = load i64, ptr @cbc_iv, align 8
  store i64 %10, ptr %1, align 8
  call void @DES_xcbc_encrypt(ptr noundef nonnull @cbc_data, ptr noundef nonnull %4, i64 noundef %6, ptr noundef nonnull %2, ptr noundef nonnull %1, ptr noundef nonnull @cbc2_key, ptr noundef nonnull @cbc3_key, i32 noundef 1) #6
  %11 = call i32 @test_mem_eq(ptr noundef nonnull @.str.24, i32 noundef 411, ptr noundef nonnull @.str.34, ptr noundef nonnull @.str.44, ptr noundef nonnull %4, i64 noundef 32, ptr noundef nonnull @xcbc_ok, i64 noundef 32) #6
  %.not5 = icmp eq i32 %11, 0
  br i1 %.not5, label %15, label %12

12:                                               ; preds = %9
  %13 = load i64, ptr @cbc_iv, align 8
  store i64 %13, ptr %1, align 8
  call void @DES_xcbc_encrypt(ptr noundef nonnull %4, ptr noundef nonnull %3, i64 noundef %6, ptr noundef nonnull %2, ptr noundef nonnull %1, ptr noundef nonnull @cbc2_key, ptr noundef nonnull @cbc3_key, i32 noundef 0) #6
  %14 = call i32 @test_mem_eq(ptr noundef nonnull @.str.24, i32 noundef 416, ptr noundef nonnull @.str.37, ptr noundef nonnull @.str.37, ptr noundef nonnull @cbc_data, i64 noundef %6, ptr noundef nonnull @cbc_data, i64 noundef %6) #6
  br label %15

15:                                               ; preds = %9, %0, %12
  %.0 = phi i32 [ %14, %12 ], [ 0, %0 ], [ 0, %9 ]
  call void @llvm.lifetime.end.p0(i64 40, ptr nonnull %4) #6
  call void @llvm.lifetime.end.p0(i64 40, ptr nonnull %3) #6
  call void @llvm.lifetime.end.p0(i64 128, ptr nonnull %2) #6
  call void @llvm.lifetime.end.p0(i64 8, ptr nonnull %1) #6
  ret i32 %.0
}